SF:/home/dubu/git/spotify/src/aggregate.rs
FN:25,_RNvNtCs9AptuOHTLZc_11music_stats9aggregate11count_plays
FN:12,_RNvNtCs9AptuOHTLZc_11music_stats9aggregate18compute_statistics
FN:33,_RNvNtCs9AptuOHTLZc_11music_stats9aggregate18sort_by_play_count
FN:35,_RNCNvNtCs9AptuOHTLZc_11music_stats9aggregate18sort_by_play_count0B5_
FN:35,_RNCNvNtCs17DqjwEXZjU_11music_stats9aggregate18sort_by_play_count0B5_
FN:25,_RNvNtCs17DqjwEXZjU_11music_stats9aggregate11count_plays
FN:12,_RNvNtCs17DqjwEXZjU_11music_stats9aggregate18compute_statistics
FN:33,_RNvNtCs17DqjwEXZjU_11music_stats9aggregate18sort_by_play_count
FN:35,_RNCNvNtCsiWAXfJxbeky_11music_stats9aggregate18sort_by_play_count0B5_
FN:25,_RNvNtCsiWAXfJxbeky_11music_stats9aggregate11count_plays
FN:12,_RNvNtCsiWAXfJxbeky_11music_stats9aggregate18compute_statistics
FN:33,_RNvNtCsiWAXfJxbeky_11music_stats9aggregate18sort_by_play_count
FN:35,_RNCNvNtCseb4eiYqM2BA_11music_stats9aggregate18sort_by_play_count0B5_
FN:25,_RNvNtCseb4eiYqM2BA_11music_stats9aggregate11count_plays
FN:12,_RNvNtCseb4eiYqM2BA_11music_stats9aggregate18compute_statistics
FN:33,_RNvNtCseb4eiYqM2BA_11music_stats9aggregate18sort_by_play_count
FNDA:6,_RNvNtCs9AptuOHTLZc_11music_stats9aggregate11count_plays
FNDA:6,_RNvNtCs9AptuOHTLZc_11music_stats9aggregate18compute_statistics
FNDA:6,_RNvNtCs9AptuOHTLZc_11music_stats9aggregate18sort_by_play_count
FNDA:8,_RNCNvNtCs9AptuOHTLZc_11music_stats9aggregate18sort_by_play_count0B5_
FNDA:0,_RNCNvNtCs17DqjwEXZjU_11music_stats9aggregate18sort_by_play_count0B5_
FNDA:0,_RNvNtCs17DqjwEXZjU_11music_stats9aggregate11count_plays
FNDA:0,_RNvNtCs17DqjwEXZjU_11music_stats9aggregate18compute_statistics
FNDA:0,_RNvNtCs17DqjwEXZjU_11music_stats9aggregate18sort_by_play_count
FNDA:0,_RNCNvNtCsiWAXfJxbeky_11music_stats9aggregate18sort_by_play_count0B5_
FNDA:0,_RNvNtCsiWAXfJxbeky_11music_stats9aggregate11count_plays
FNDA:0,_RNvNtCsiWAXfJxbeky_11music_stats9aggregate18compute_statistics
FNDA:0,_RNvNtCsiWAXfJxbeky_11music_stats9aggregate18sort_by_play_count
FNDA:0,_RNCNvNtCseb4eiYqM2BA_11music_stats9aggregate18sort_by_play_count0B5_
FNDA:0,_RNvNtCseb4eiYqM2BA_11music_stats9aggregate11count_plays
FNDA:0,_RNvNtCseb4eiYqM2BA_11music_stats9aggregate18compute_statistics
FNDA:0,_RNvNtCseb4eiYqM2BA_11music_stats9aggregate18sort_by_play_count
FNF:4
FNH:4
DA:12,6
DA:13,6
DA:14,6
DA:15,6
DA:16,6
DA:18,6
DA:19,6
DA:20,6
DA:21,6
DA:22,6
DA:23,6
DA:25,6
DA:26,6
DA:27,23
DA:28,17
DA:29,17
DA:30,6
DA:31,6
DA:33,6
DA:34,6
DA:35,8
DA:36,6
DA:37,6
BRF:0
BRH:0
LF:24
LH:24
end_of_record
SF:/home/dubu/git/spotify/src/config.rs
FN:113,_RINvNtCs9AptuOHTLZc_11music_stats6config9parse_envjEB4_
FN:113,_RINvNtCs9AptuOHTLZc_11music_stats6config9parse_envyEB4_
FN:119,_RNCINvNtCs9AptuOHTLZc_11music_stats6config9parse_envjE0B6_
FN:119,_RNCINvNtCs9AptuOHTLZc_11music_stats6config9parse_envyE0B6_
FN:101,_RNCNvNtCs9AptuOHTLZc_11music_stats6config11require_env0B5_
FN:69,_RNCNvNtCs9AptuOHTLZc_11music_stats6config13load_provider0B5_
FN:85,_RNCNvNtCs9AptuOHTLZc_11music_stats6config15try_load_lastfm0B5_
FN:88,_RNCNvNtCs9AptuOHTLZc_11music_stats6config15try_load_lastfms_0B5_
FN:37,_RNvMNtCs9AptuOHTLZc_11music_stats6configNtB2_8Provider14youtube_cookie
FN:29,_RNvMNtCs9AptuOHTLZc_11music_stats6configNtB2_8Provider6lastfm
FN:99,_RNvNtCs9AptuOHTLZc_11music_stats6config11require_env
FN:65,_RNvNtCs9AptuOHTLZc_11music_stats6config13load_provider
FN:82,_RNvNtCs9AptuOHTLZc_11music_stats6config15try_load_lastfm
FN:126,_RNvNtCs9AptuOHTLZc_11music_stats6config15validate_config
FN:46,_RNvNtCs9AptuOHTLZc_11music_stats6config4load
FN:113,_RINvNtCs17DqjwEXZjU_11music_stats6config9parse_envpEB4_
FN:119,_RNCINvNtCs17DqjwEXZjU_11music_stats6config9parse_envpE0B6_
FN:101,_RNCNvNtCs17DqjwEXZjU_11music_stats6config11require_env0B5_
FN:69,_RNCNvNtCs17DqjwEXZjU_11music_stats6config13load_provider0B5_
FN:85,_RNCNvNtCs17DqjwEXZjU_11music_stats6config15try_load_lastfm0B5_
FN:88,_RNCNvNtCs17DqjwEXZjU_11music_stats6config15try_load_lastfms_0B5_
FN:37,_RNvMNtCs17DqjwEXZjU_11music_stats6configNtB2_8Provider14youtube_cookie
FN:29,_RNvMNtCs17DqjwEXZjU_11music_stats6configNtB2_8Provider6lastfm
FN:99,_RNvNtCs17DqjwEXZjU_11music_stats6config11require_env
FN:65,_RNvNtCs17DqjwEXZjU_11music_stats6config13load_provider
FN:82,_RNvNtCs17DqjwEXZjU_11music_stats6config15try_load_lastfm
FN:126,_RNvNtCs17DqjwEXZjU_11music_stats6config15validate_config
FN:46,_RNvNtCs17DqjwEXZjU_11music_stats6config4load
FN:113,_RINvNtCsiWAXfJxbeky_11music_stats6config9parse_envpEB4_
FN:119,_RNCINvNtCsiWAXfJxbeky_11music_stats6config9parse_envpE0B6_
FN:101,_RNCNvNtCsiWAXfJxbeky_11music_stats6config11require_env0B5_
FN:69,_RNCNvNtCsiWAXfJxbeky_11music_stats6config13load_provider0B5_
FN:85,_RNCNvNtCsiWAXfJxbeky_11music_stats6config15try_load_lastfm0B5_
FN:88,_RNCNvNtCsiWAXfJxbeky_11music_stats6config15try_load_lastfms_0B5_
FN:37,_RNvMNtCsiWAXfJxbeky_11music_stats6configNtB2_8Provider14youtube_cookie
FN:29,_RNvMNtCsiWAXfJxbeky_11music_stats6configNtB2_8Provider6lastfm
FN:99,_RNvNtCsiWAXfJxbeky_11music_stats6config11require_env
FN:65,_RNvNtCsiWAXfJxbeky_11music_stats6config13load_provider
FN:82,_RNvNtCsiWAXfJxbeky_11music_stats6config15try_load_lastfm
FN:126,_RNvNtCsiWAXfJxbeky_11music_stats6config15validate_config
FN:46,_RNvNtCsiWAXfJxbeky_11music_stats6config4load
FN:37,_RNvMNtCseb4eiYqM2BA_11music_stats6configNtB2_8Provider14youtube_cookie
FN:29,_RNvMNtCseb4eiYqM2BA_11music_stats6configNtB2_8Provider6lastfm
FN:99,_RNvNtCseb4eiYqM2BA_11music_stats6config11require_env
FN:65,_RNvNtCseb4eiYqM2BA_11music_stats6config13load_provider
FN:82,_RNvNtCseb4eiYqM2BA_11music_stats6config15try_load_lastfm
FN:126,_RNvNtCseb4eiYqM2BA_11music_stats6config15validate_config
FN:46,_RNvNtCseb4eiYqM2BA_11music_stats6config4load
FN:113,_RINvNtCseb4eiYqM2BA_11music_stats6config9parse_envjEB4_
FN:113,_RINvNtCseb4eiYqM2BA_11music_stats6config9parse_envyEB4_
FN:119,_RNCINvNtCseb4eiYqM2BA_11music_stats6config9parse_envjE0B6_
FN:119,_RNCINvNtCseb4eiYqM2BA_11music_stats6config9parse_envyE0B6_
FN:101,_RNCNvNtCseb4eiYqM2BA_11music_stats6config11require_env0B5_
FN:69,_RNCNvNtCseb4eiYqM2BA_11music_stats6config13load_provider0B5_
FN:85,_RNCNvNtCseb4eiYqM2BA_11music_stats6config15try_load_lastfm0B5_
FN:88,_RNCNvNtCseb4eiYqM2BA_11music_stats6config15try_load_lastfms_0B5_
FNDA:12,_RINvNtCs9AptuOHTLZc_11music_stats6config9parse_envjEB4_
FNDA:13,_RINvNtCs9AptuOHTLZc_11music_stats6config9parse_envyEB4_
FNDA:0,_RNCINvNtCs9AptuOHTLZc_11music_stats6config9parse_envjE0B6_
FNDA:1,_RNCINvNtCs9AptuOHTLZc_11music_stats6config9parse_envyE0B6_
FNDA:2,_RNCNvNtCs9AptuOHTLZc_11music_stats6config11require_env0B5_
FNDA:4,_RNCNvNtCs9AptuOHTLZc_11music_stats6config13load_provider0B5_
FNDA:10,_RNCNvNtCs9AptuOHTLZc_11music_stats6config15try_load_lastfm0B5_
FNDA:9,_RNCNvNtCs9AptuOHTLZc_11music_stats6config15try_load_lastfms_0B5_
FNDA:5,_RNvMNtCs9AptuOHTLZc_11music_stats6configNtB2_8Provider14youtube_cookie
FNDA:4,_RNvMNtCs9AptuOHTLZc_11music_stats6configNtB2_8Provider6lastfm
FNDA:29,_RNvNtCs9AptuOHTLZc_11music_stats6config11require_env
FNDA:12,_RNvNtCs9AptuOHTLZc_11music_stats6config13load_provider
FNDA:12,_RNvNtCs9AptuOHTLZc_11music_stats6config15try_load_lastfm
FNDA:11,_RNvNtCs9AptuOHTLZc_11music_stats6config15validate_config
FNDA:15,_RNvNtCs9AptuOHTLZc_11music_stats6config4load
FNDA:0,_RINvNtCs17DqjwEXZjU_11music_stats6config9parse_envpEB4_
FNDA:0,_RNCINvNtCs17DqjwEXZjU_11music_stats6config9parse_envpE0B6_
FNDA:0,_RNCNvNtCs17DqjwEXZjU_11music_stats6config11require_env0B5_
FNDA:0,_RNCNvNtCs17DqjwEXZjU_11music_stats6config13load_provider0B5_
FNDA:0,_RNCNvNtCs17DqjwEXZjU_11music_stats6config15try_load_lastfm0B5_
FNDA:0,_RNCNvNtCs17DqjwEXZjU_11music_stats6config15try_load_lastfms_0B5_
FNDA:0,_RNvMNtCs17DqjwEXZjU_11music_stats6configNtB2_8Provider14youtube_cookie
FNDA:0,_RNvMNtCs17DqjwEXZjU_11music_stats6configNtB2_8Provider6lastfm
FNDA:0,_RNvNtCs17DqjwEXZjU_11music_stats6config11require_env
FNDA:0,_RNvNtCs17DqjwEXZjU_11music_stats6config13load_provider
FNDA:0,_RNvNtCs17DqjwEXZjU_11music_stats6config15try_load_lastfm
FNDA:0,_RNvNtCs17DqjwEXZjU_11music_stats6config15validate_config
FNDA:0,_RNvNtCs17DqjwEXZjU_11music_stats6config4load
FNDA:0,_RINvNtCsiWAXfJxbeky_11music_stats6config9parse_envpEB4_
FNDA:0,_RNCINvNtCsiWAXfJxbeky_11music_stats6config9parse_envpE0B6_
FNDA:0,_RNCNvNtCsiWAXfJxbeky_11music_stats6config11require_env0B5_
FNDA:0,_RNCNvNtCsiWAXfJxbeky_11music_stats6config13load_provider0B5_
FNDA:0,_RNCNvNtCsiWAXfJxbeky_11music_stats6config15try_load_lastfm0B5_
FNDA:0,_RNCNvNtCsiWAXfJxbeky_11music_stats6config15try_load_lastfms_0B5_
FNDA:0,_RNvMNtCsiWAXfJxbeky_11music_stats6configNtB2_8Provider14youtube_cookie
FNDA:0,_RNvMNtCsiWAXfJxbeky_11music_stats6configNtB2_8Provider6lastfm
FNDA:0,_RNvNtCsiWAXfJxbeky_11music_stats6config11require_env
FNDA:0,_RNvNtCsiWAXfJxbeky_11music_stats6config13load_provider
FNDA:0,_RNvNtCsiWAXfJxbeky_11music_stats6config15try_load_lastfm
FNDA:0,_RNvNtCsiWAXfJxbeky_11music_stats6config15validate_config
FNDA:0,_RNvNtCsiWAXfJxbeky_11music_stats6config4load
FNDA:0,_RNvMNtCseb4eiYqM2BA_11music_stats6configNtB2_8Provider14youtube_cookie
FNDA:0,_RNvMNtCseb4eiYqM2BA_11music_stats6configNtB2_8Provider6lastfm
FNDA:0,_RNvNtCseb4eiYqM2BA_11music_stats6config11require_env
FNDA:0,_RNvNtCseb4eiYqM2BA_11music_stats6config13load_provider
FNDA:0,_RNvNtCseb4eiYqM2BA_11music_stats6config15try_load_lastfm
FNDA:0,_RNvNtCseb4eiYqM2BA_11music_stats6config15validate_config
FNDA:0,_RNvNtCseb4eiYqM2BA_11music_stats6config4load
FNDA:0,_RINvNtCseb4eiYqM2BA_11music_stats6config9parse_envjEB4_
FNDA:0,_RINvNtCseb4eiYqM2BA_11music_stats6config9parse_envyEB4_
FNDA:0,_RNCINvNtCseb4eiYqM2BA_11music_stats6config9parse_envjE0B6_
FNDA:0,_RNCINvNtCseb4eiYqM2BA_11music_stats6config9parse_envyE0B6_
FNDA:0,_RNCNvNtCseb4eiYqM2BA_11music_stats6config11require_env0B5_
FNDA:0,_RNCNvNtCseb4eiYqM2BA_11music_stats6config13load_provider0B5_
FNDA:0,_RNCNvNtCseb4eiYqM2BA_11music_stats6config15try_load_lastfm0B5_
FNDA:0,_RNCNvNtCseb4eiYqM2BA_11music_stats6config15try_load_lastfms_0B5_
FNF:13
FNH:13
DA:29,4
DA:30,4
DA:31,1
DA:32,1
DA:33,2
DA:35,4
DA:37,5
DA:38,5
DA:39,2
DA:40,1
DA:41,2
DA:43,5
DA:46,15
DA:47,15
DA:48,14
DA:49,13
DA:50,12
DA:52,12
DA:54,11
DA:56,9
DA:57,9
DA:58,9
DA:59,9
DA:60,9
DA:61,9
DA:62,9
DA:63,15
DA:65,12
DA:66,12
DA:67,12
DA:68,12
DA:69,12
DA:71,12
DA:72,1
DA:73,1
DA:74,1
DA:75,1
DA:76,8
DA:77,2
DA:78,1
DA:80,12
DA:82,12
DA:83,12
DA:84,12
DA:85,12
DA:86,12
DA:87,12
DA:88,12
DA:90,12
DA:91,9
DA:92,9
DA:93,9
DA:94,9
DA:95,3
DA:97,12
DA:99,29
DA:100,29
DA:101,2
DA:102,2
DA:104,27
DA:105,0
DA:106,0
DA:107,0
DA:108,27
DA:110,27
DA:111,29
DA:113,25
DA:114,25
DA:115,25
DA:117,25
DA:118,5
DA:119,1
DA:120,1
DA:121,1
DA:122,20
DA:124,25
DA:126,11
DA:127,11
DA:128,1
DA:129,1
DA:130,1
DA:131,1
DA:132,10
DA:134,10
DA:135,1
DA:136,1
DA:137,1
DA:138,1
DA:139,9
DA:141,9
DA:142,11
BRF:0
BRH:0
LF:95
LH:92
end_of_record
SF:/home/dubu/git/spotify/src/errors.rs
FN:34,_RNvXNtCs9AptuOHTLZc_11music_stats6errorsNtB2_5ErrorNtNtCs3XFJfFEDSOQ_4core3fmt7Display3fmt
FN:34,_RNvXNtCs17DqjwEXZjU_11music_stats6errorsNtB2_5ErrorNtNtCs3XFJfFEDSOQ_4core3fmt7Display3fmt
FN:34,_RNvXNtCsiWAXfJxbeky_11music_stats6errorsNtB2_5ErrorNtNtCs3XFJfFEDSOQ_4core3fmt7Display3fmt
FN:34,_RNvXNtCseb4eiYqM2BA_11music_stats6errorsNtB2_5ErrorNtNtCs3XFJfFEDSOQ_4core3fmt7Display3fmt
FNDA:10,_RNvXNtCs9AptuOHTLZc_11music_stats6errorsNtB2_5ErrorNtNtCs3XFJfFEDSOQ_4core3fmt7Display3fmt
FNDA:0,_RNvXNtCs17DqjwEXZjU_11music_stats6errorsNtB2_5ErrorNtNtCs3XFJfFEDSOQ_4core3fmt7Display3fmt
FNDA:0,_RNvXNtCsiWAXfJxbeky_11music_stats6errorsNtB2_5ErrorNtNtCs3XFJfFEDSOQ_4core3fmt7Display3fmt
FNDA:0,_RNvXNtCseb4eiYqM2BA_11music_stats6errorsNtB2_5ErrorNtNtCs3XFJfFEDSOQ_4core3fmt7Display3fmt
FNF:1
FNH:1
DA:34,10
DA:35,10
DA:36,2
DA:37,2
DA:40,1
DA:41,1
DA:42,1
DA:45,2
DA:46,2
DA:48,0
DA:49,0
DA:50,0
DA:51,0
DA:55,5
DA:56,5
DA:58,0
DA:59,0
DA:62,0
DA:63,0
DA:64,0
DA:66,0
DA:67,0
DA:68,0
DA:73,10
BRF:0
BRH:0
LF:24
LH:12
end_of_record
SF:/home/dubu/git/spotify/src/main.rs
FN:16,_RNCNCNvCs17DqjwEXZjU_11music_stats4main00B5_
FN:45,_RNCNvCs17DqjwEXZjU_11music_stats15fetch_scrobbles0B3_
FN:26,_RNCNvCs17DqjwEXZjU_11music_stats3run0B3_
FN:11,_RNCNvCs17DqjwEXZjU_11music_stats4main0B3_
FN:42,_RNvCs17DqjwEXZjU_11music_stats15fetch_scrobbles
FN:69,_RNvCs17DqjwEXZjU_11music_stats17build_http_client
FN:26,_RNvCs17DqjwEXZjU_11music_stats3run
FN:11,_RNvCs17DqjwEXZjU_11music_stats4main
FN:42,_RNvCseb4eiYqM2BA_11music_stats15fetch_scrobbles
FN:69,_RNvCseb4eiYqM2BA_11music_stats17build_http_client
FN:26,_RNvCseb4eiYqM2BA_11music_stats3run
FN:11,_RNvCseb4eiYqM2BA_11music_stats4main
FN:16,_RNCNCNvCseb4eiYqM2BA_11music_stats4main00B5_
FN:45,_RNCNvCseb4eiYqM2BA_11music_stats15fetch_scrobbles0B3_
FN:26,_RNCNvCseb4eiYqM2BA_11music_stats3run0B3_
FN:11,_RNCNvCseb4eiYqM2BA_11music_stats4main0B3_
FNDA:0,_RNCNCNvCs17DqjwEXZjU_11music_stats4main00B5_
FNDA:0,_RNCNvCs17DqjwEXZjU_11music_stats15fetch_scrobbles0B3_
FNDA:0,_RNCNvCs17DqjwEXZjU_11music_stats3run0B3_
FNDA:0,_RNCNvCs17DqjwEXZjU_11music_stats4main0B3_
FNDA:0,_RNvCs17DqjwEXZjU_11music_stats15fetch_scrobbles
FNDA:0,_RNvCs17DqjwEXZjU_11music_stats17build_http_client
FNDA:0,_RNvCs17DqjwEXZjU_11music_stats3run
FNDA:0,_RNvCs17DqjwEXZjU_11music_stats4main
FNDA:0,_RNvCseb4eiYqM2BA_11music_stats15fetch_scrobbles
FNDA:0,_RNvCseb4eiYqM2BA_11music_stats17build_http_client
FNDA:0,_RNvCseb4eiYqM2BA_11music_stats3run
FNDA:0,_RNvCseb4eiYqM2BA_11music_stats4main
FNDA:0,_RNCNCNvCseb4eiYqM2BA_11music_stats4main00B5_
FNDA:0,_RNCNvCseb4eiYqM2BA_11music_stats15fetch_scrobbles0B3_
FNDA:0,_RNCNvCseb4eiYqM2BA_11music_stats3run0B3_
FNDA:0,_RNCNvCseb4eiYqM2BA_11music_stats4main0B3_
FNF:8
FNH:0
DA:11,0
DA:12,0
DA:14,0
DA:15,0
DA:16,0
DA:18,0
DA:20,0
DA:21,0
DA:22,0
DA:23,0
DA:24,0
DA:26,0
DA:27,0
DA:28,0
DA:30,0
DA:31,0
DA:33,0
DA:34,0
DA:36,0
DA:37,0
DA:39,0
DA:40,0
DA:42,0
DA:43,0
DA:44,0
DA:45,0
DA:46,0
DA:48,0
DA:49,0
DA:50,0
DA:51,0
DA:52,0
DA:53,0
DA:54,0
DA:55,0
DA:56,0
DA:57,0
DA:58,0
DA:60,0
DA:61,0
DA:62,0
DA:63,0
DA:64,0
DA:66,0
DA:67,0
DA:69,0
DA:70,0
DA:71,0
DA:72,0
DA:73,0
DA:74,0
DA:75,0
BRF:0
BRH:0
LF:60
LH:0
end_of_record
SF:/home/dubu/git/spotify/src/output/format.rs
FN:16,_RNCNvNtNtCs9AptuOHTLZc_11music_stats6output6format17format_statistics0B7_
FN:54,_RNvNtNtCs9AptuOHTLZc_11music_stats6output6format17calculate_padding
FN:60,_RNvNtNtCs9AptuOHTLZc_11music_stats6output6format17format_play_count
FN:8,_RNvNtNtCs9AptuOHTLZc_11music_stats6output6format17format_statistics
FN:21,_RNvNtNtCs9AptuOHTLZc_11music_stats6output6format17format_track_line
FN:33,_RNvNtNtCs9AptuOHTLZc_11music_stats6output6format22truncate_with_ellipsis
FN:16,_RNCNvNtNtCs17DqjwEXZjU_11music_stats6output6format17format_statistics0B7_
FN:54,_RNvNtNtCs17DqjwEXZjU_11music_stats6output6format17calculate_padding
FN:60,_RNvNtNtCs17DqjwEXZjU_11music_stats6output6format17format_play_count
FN:8,_RNvNtNtCs17DqjwEXZjU_11music_stats6output6format17format_statistics
FN:21,_RNvNtNtCs17DqjwEXZjU_11music_stats6output6format17format_track_line
FN:33,_RNvNtNtCs17DqjwEXZjU_11music_stats6output6format22truncate_with_ellipsis
FN:16,_RNCNvNtNtCsiWAXfJxbeky_11music_stats6output6format17format_statistics0B7_
FN:54,_RNvNtNtCsiWAXfJxbeky_11music_stats6output6format17calculate_padding
FN:60,_RNvNtNtCsiWAXfJxbeky_11music_stats6output6format17format_play_count
FN:8,_RNvNtNtCsiWAXfJxbeky_11music_stats6output6format17format_statistics
FN:21,_RNvNtNtCsiWAXfJxbeky_11music_stats6output6format17format_track_line
FN:33,_RNvNtNtCsiWAXfJxbeky_11music_stats6output6format22truncate_with_ellipsis
FN:16,_RNCNvNtNtCseb4eiYqM2BA_11music_stats6output6format17format_statistics0B7_
FN:54,_RNvNtNtCseb4eiYqM2BA_11music_stats6output6format17calculate_padding
FN:60,_RNvNtNtCseb4eiYqM2BA_11music_stats6output6format17format_play_count
FN:8,_RNvNtNtCseb4eiYqM2BA_11music_stats6output6format17format_statistics
FN:21,_RNvNtNtCseb4eiYqM2BA_11music_stats6output6format17format_track_line
FN:33,_RNvNtNtCseb4eiYqM2BA_11music_stats6output6format22truncate_with_ellipsis
FNDA:7,_RNCNvNtNtCs9AptuOHTLZc_11music_stats6output6format17format_statistics0B7_
FNDA:7,_RNvNtNtCs9AptuOHTLZc_11music_stats6output6format17calculate_padding
FNDA:7,_RNvNtNtCs9AptuOHTLZc_11music_stats6output6format17format_play_count
FNDA:7,_RNvNtNtCs9AptuOHTLZc_11music_stats6output6format17format_statistics
FNDA:7,_RNvNtNtCs9AptuOHTLZc_11music_stats6output6format17format_track_line
FNDA:14,_RNvNtNtCs9AptuOHTLZc_11music_stats6output6format22truncate_with_ellipsis
FNDA:0,_RNCNvNtNtCs17DqjwEXZjU_11music_stats6output6format17format_statistics0B7_
FNDA:0,_RNvNtNtCs17DqjwEXZjU_11music_stats6output6format17calculate_padding
FNDA:0,_RNvNtNtCs17DqjwEXZjU_11music_stats6output6format17format_play_count
FNDA:0,_RNvNtNtCs17DqjwEXZjU_11music_stats6output6format17format_statistics
FNDA:0,_RNvNtNtCs17DqjwEXZjU_11music_stats6output6format17format_track_line
FNDA:0,_RNvNtNtCs17DqjwEXZjU_11music_stats6output6format22truncate_with_ellipsis
FNDA:0,_RNCNvNtNtCsiWAXfJxbeky_11music_stats6output6format17format_statistics0B7_
FNDA:0,_RNvNtNtCsiWAXfJxbeky_11music_stats6output6format17calculate_padding
FNDA:0,_RNvNtNtCsiWAXfJxbeky_11music_stats6output6format17format_play_count
FNDA:0,_RNvNtNtCsiWAXfJxbeky_11music_stats6output6format17format_statistics
FNDA:0,_RNvNtNtCsiWAXfJxbeky_11music_stats6output6format17format_track_line
FNDA:0,_RNvNtNtCsiWAXfJxbeky_11music_stats6output6format22truncate_with_ellipsis
FNDA:0,_RNCNvNtNtCseb4eiYqM2BA_11music_stats6output6format17format_statistics0B7_
FNDA:0,_RNvNtNtCseb4eiYqM2BA_11music_stats6output6format17calculate_padding
FNDA:0,_RNvNtNtCseb4eiYqM2BA_11music_stats6output6format17format_play_count
FNDA:0,_RNvNtNtCseb4eiYqM2BA_11music_stats6output6format17format_statistics
FNDA:0,_RNvNtNtCseb4eiYqM2BA_11music_stats6output6format17format_track_line
FNDA:0,_RNvNtNtCseb4eiYqM2BA_11music_stats6output6format22truncate_with_ellipsis
FNF:6
FNH:6
DA:8,7
DA:9,7
DA:10,1
DA:11,6
DA:13,6
DA:14,6
DA:15,6
DA:16,7
DA:17,6
DA:18,6
DA:19,7
DA:21,7
DA:22,7
DA:23,7
DA:24,7
DA:25,7
DA:27,7
DA:28,7
DA:31,7
DA:33,14
DA:34,14
DA:35,12
DA:36,2
DA:38,2
DA:39,2
DA:41,60
DA:42,60
DA:43,60
DA:44,2
DA:45,58
DA:46,58
DA:47,58
DA:50,2
DA:51,2
DA:52,14
DA:54,7
DA:55,7
DA:56,7
DA:57,7
DA:58,7
DA:60,7
DA:61,7
DA:62,4
DA:64,3
DA:66,7
BRF:0
BRH:0
LF:46
LH:46
end_of_record
SF:/home/dubu/git/spotify/src/output/github.rs
FN:26,_RNCNCNvNtNtCs9AptuOHTLZc_11music_stats6output6github11upload_gist00B9_
FN:13,_RNCNvNtNtCs9AptuOHTLZc_11music_stats6output6github11upload_gist0B7_
FN:8,_RNvNtNtCs9AptuOHTLZc_11music_stats6output6github11upload_gist
FN:43,_RNvNtNtCs9AptuOHTLZc_11music_stats6output6github13build_payload
FN:8,_RNvNtNtCs17DqjwEXZjU_11music_stats6output6github11upload_gist
FN:26,_RNCNCNvNtNtCs17DqjwEXZjU_11music_stats6output6github11upload_gist00B9_
FN:13,_RNCNvNtNtCs17DqjwEXZjU_11music_stats6output6github11upload_gist0B7_
FN:43,_RNvNtNtCs17DqjwEXZjU_11music_stats6output6github13build_payload
FN:26,_RNCNCNvNtNtCsiWAXfJxbeky_11music_stats6output6github11upload_gist00B9_
FN:13,_RNCNvNtNtCsiWAXfJxbeky_11music_stats6output6github11upload_gist0B7_
FN:43,_RNvNtNtCsiWAXfJxbeky_11music_stats6output6github13build_payload
FN:8,_RNvNtNtCsiWAXfJxbeky_11music_stats6output6github11upload_gist
FN:8,_RNvNtNtCseb4eiYqM2BA_11music_stats6output6github11upload_gist
FN:43,_RNvNtNtCseb4eiYqM2BA_11music_stats6output6github13build_payload
FN:26,_RNCNCNvNtNtCseb4eiYqM2BA_11music_stats6output6github11upload_gist00B9_
FN:13,_RNCNvNtNtCseb4eiYqM2BA_11music_stats6output6github11upload_gist0B7_
FNDA:0,_RNCNCNvNtNtCs9AptuOHTLZc_11music_stats6output6github11upload_gist00B9_
FNDA:0,_RNCNvNtNtCs9AptuOHTLZc_11music_stats6output6github11upload_gist0B7_
FNDA:0,_RNvNtNtCs9AptuOHTLZc_11music_stats6output6github11upload_gist
FNDA:0,_RNvNtNtCs9AptuOHTLZc_11music_stats6output6github13build_payload
FNDA:0,_RNvNtNtCs17DqjwEXZjU_11music_stats6output6github11upload_gist
FNDA:0,_RNCNCNvNtNtCs17DqjwEXZjU_11music_stats6output6github11upload_gist00B9_
FNDA:0,_RNCNvNtNtCs17DqjwEXZjU_11music_stats6output6github11upload_gist0B7_
FNDA:0,_RNvNtNtCs17DqjwEXZjU_11music_stats6output6github13build_payload
FNDA:0,_RNCNCNvNtNtCsiWAXfJxbeky_11music_stats6output6github11upload_gist00B9_
FNDA:0,_RNCNvNtNtCsiWAXfJxbeky_11music_stats6output6github11upload_gist0B7_
FNDA:0,_RNvNtNtCsiWAXfJxbeky_11music_stats6output6github13build_payload
FNDA:0,_RNvNtNtCsiWAXfJxbeky_11music_stats6output6github11upload_gist
FNDA:0,_RNvNtNtCseb4eiYqM2BA_11music_stats6output6github11upload_gist
FNDA:0,_RNvNtNtCseb4eiYqM2BA_11music_stats6output6github13build_payload
FNDA:0,_RNCNCNvNtNtCseb4eiYqM2BA_11music_stats6output6github11upload_gist00B9_
FNDA:0,_RNCNvNtNtCseb4eiYqM2BA_11music_stats6output6github11upload_gist0B7_
FNF:4
FNH:0
DA:8,0
DA:9,0
DA:10,0
DA:11,0
DA:12,0
DA:13,0
DA:14,0
DA:15,0
DA:17,0
DA:18,0
DA:19,0
DA:20,0
DA:21,0
DA:22,0
DA:23,0
DA:24,0
DA:25,0
DA:26,0
DA:27,0
DA:28,0
DA:30,0
DA:31,0
DA:32,0
DA:33,0
DA:34,0
DA:35,0
DA:36,0
DA:37,0
DA:38,0
DA:40,0
DA:41,0
DA:43,0
DA:44,0
DA:45,0
DA:46,0
DA:47,0
DA:48,0
DA:49,0
DA:52,0
DA:53,0
DA:54,0
DA:55,0
DA:56,0
BRF:0
BRH:0
LF:45
LH:0
end_of_record
SF:/home/dubu/git/spotify/src/providers/lastfm.rs
FN:70,_RNCNCNvNtNtCs9AptuOHTLZc_11music_stats9providers6lastfm10fetch_page00B9_
FN:83,_RNCNCNvNtNtCs9AptuOHTLZc_11music_stats9providers6lastfm10fetch_page0s_0B9_
FN:39,_RNCNCNvNtNtCs9AptuOHTLZc_11music_stats9providers6lastfm15fetch_all_pages00B9_
FN:63,_RNCNvNtNtCs9AptuOHTLZc_11music_stats9providers6lastfm10fetch_page0B7_
FN:28,_RNCNvNtNtCs9AptuOHTLZc_11music_stats9providers6lastfm15fetch_all_pages0B7_
FN:17,_RNCNvNtNtCs9AptuOHTLZc_11music_stats9providers6lastfm15fetch_scrobbles0B7_
FN:57,_RNvNtNtCs9AptuOHTLZc_11music_stats9providers6lastfm10fetch_page
FN:86,_RNvNtNtCs9AptuOHTLZc_11music_stats9providers6lastfm11parse_track
FN:23,_RNvNtNtCs9AptuOHTLZc_11music_stats9providers6lastfm15fetch_all_pages
FN:12,_RNvNtNtCs9AptuOHTLZc_11music_stats9providers6lastfm15fetch_scrobbles
FN:92,_RNvNtNtCs9AptuOHTLZc_11music_stats9providers6lastfm19calculate_timestamp
FN:12,_RNvNtNtCs17DqjwEXZjU_11music_stats9providers6lastfm15fetch_scrobbles
FN:70,_RNCNCNvNtNtCs17DqjwEXZjU_11music_stats9providers6lastfm10fetch_page00B9_
FN:83,_RNCNCNvNtNtCs17DqjwEXZjU_11music_stats9providers6lastfm10fetch_page0s_0B9_
FN:39,_RNCNCNvNtNtCs17DqjwEXZjU_11music_stats9providers6lastfm15fetch_all_pages00B9_
FN:63,_RNCNvNtNtCs17DqjwEXZjU_11music_stats9providers6lastfm10fetch_page0B7_
FN:28,_RNCNvNtNtCs17DqjwEXZjU_11music_stats9providers6lastfm15fetch_all_pages0B7_
FN:17,_RNCNvNtNtCs17DqjwEXZjU_11music_stats9providers6lastfm15fetch_scrobbles0B7_
FN:57,_RNvNtNtCs17DqjwEXZjU_11music_stats9providers6lastfm10fetch_page
FN:86,_RNvNtNtCs17DqjwEXZjU_11music_stats9providers6lastfm11parse_track
FN:23,_RNvNtNtCs17DqjwEXZjU_11music_stats9providers6lastfm15fetch_all_pages
FN:92,_RNvNtNtCs17DqjwEXZjU_11music_stats9providers6lastfm19calculate_timestamp
FN:57,_RNvNtNtCsiWAXfJxbeky_11music_stats9providers6lastfm10fetch_page
FN:86,_RNvNtNtCsiWAXfJxbeky_11music_stats9providers6lastfm11parse_track
FN:23,_RNvNtNtCsiWAXfJxbeky_11music_stats9providers6lastfm15fetch_all_pages
FN:92,_RNvNtNtCsiWAXfJxbeky_11music_stats9providers6lastfm19calculate_timestamp
FN:12,_RNvNtNtCsiWAXfJxbeky_11music_stats9providers6lastfm15fetch_scrobbles
FN:70,_RNCNCNvNtNtCsiWAXfJxbeky_11music_stats9providers6lastfm10fetch_page00B9_
FN:83,_RNCNCNvNtNtCsiWAXfJxbeky_11music_stats9providers6lastfm10fetch_page0s_0B9_
FN:39,_RNCNCNvNtNtCsiWAXfJxbeky_11music_stats9providers6lastfm15fetch_all_pages00B9_
FN:63,_RNCNvNtNtCsiWAXfJxbeky_11music_stats9providers6lastfm10fetch_page0B7_
FN:28,_RNCNvNtNtCsiWAXfJxbeky_11music_stats9providers6lastfm15fetch_all_pages0B7_
FN:17,_RNCNvNtNtCsiWAXfJxbeky_11music_stats9providers6lastfm15fetch_scrobbles0B7_
FN:57,_RNvNtNtCseb4eiYqM2BA_11music_stats9providers6lastfm10fetch_page
FN:86,_RNvNtNtCseb4eiYqM2BA_11music_stats9providers6lastfm11parse_track
FN:23,_RNvNtNtCseb4eiYqM2BA_11music_stats9providers6lastfm15fetch_all_pages
FN:12,_RNvNtNtCseb4eiYqM2BA_11music_stats9providers6lastfm15fetch_scrobbles
FN:92,_RNvNtNtCseb4eiYqM2BA_11music_stats9providers6lastfm19calculate_timestamp
FN:70,_RNCNCNvNtNtCseb4eiYqM2BA_11music_stats9providers6lastfm10fetch_page00B9_
FN:83,_RNCNCNvNtNtCseb4eiYqM2BA_11music_stats9providers6lastfm10fetch_page0s_0B9_
FN:39,_RNCNCNvNtNtCseb4eiYqM2BA_11music_stats9providers6lastfm15fetch_all_pages00B9_
FN:63,_RNCNvNtNtCseb4eiYqM2BA_11music_stats9providers6lastfm10fetch_page0B7_
FN:28,_RNCNvNtNtCseb4eiYqM2BA_11music_stats9providers6lastfm15fetch_all_pages0B7_
FN:17,_RNCNvNtNtCseb4eiYqM2BA_11music_stats9providers6lastfm15fetch_scrobbles0B7_
FNDA:0,_RNCNCNvNtNtCs9AptuOHTLZc_11music_stats9providers6lastfm10fetch_page00B9_
FNDA:0,_RNCNCNvNtNtCs9AptuOHTLZc_11music_stats9providers6lastfm10fetch_page0s_0B9_
FNDA:0,_RNCNCNvNtNtCs9AptuOHTLZc_11music_stats9providers6lastfm15fetch_all_pages00B9_
FNDA:0,_RNCNvNtNtCs9AptuOHTLZc_11music_stats9providers6lastfm10fetch_page0B7_
FNDA:0,_RNCNvNtNtCs9AptuOHTLZc_11music_stats9providers6lastfm15fetch_all_pages0B7_
FNDA:0,_RNCNvNtNtCs9AptuOHTLZc_11music_stats9providers6lastfm15fetch_scrobbles0B7_
FNDA:0,_RNvNtNtCs9AptuOHTLZc_11music_stats9providers6lastfm10fetch_page
FNDA:0,_RNvNtNtCs9AptuOHTLZc_11music_stats9providers6lastfm11parse_track
FNDA:0,_RNvNtNtCs9AptuOHTLZc_11music_stats9providers6lastfm15fetch_all_pages
FNDA:0,_RNvNtNtCs9AptuOHTLZc_11music_stats9providers6lastfm15fetch_scrobbles
FNDA:0,_RNvNtNtCs9AptuOHTLZc_11music_stats9providers6lastfm19calculate_timestamp
FNDA:0,_RNvNtNtCs17DqjwEXZjU_11music_stats9providers6lastfm15fetch_scrobbles
FNDA:0,_RNCNCNvNtNtCs17DqjwEXZjU_11music_stats9providers6lastfm10fetch_page00B9_
FNDA:0,_RNCNCNvNtNtCs17DqjwEXZjU_11music_stats9providers6lastfm10fetch_page0s_0B9_
FNDA:0,_RNCNCNvNtNtCs17DqjwEXZjU_11music_stats9providers6lastfm15fetch_all_pages00B9_
FNDA:0,_RNCNvNtNtCs17DqjwEXZjU_11music_stats9providers6lastfm10fetch_page0B7_
FNDA:0,_RNCNvNtNtCs17DqjwEXZjU_11music_stats9providers6lastfm15fetch_all_pages0B7_
FNDA:0,_RNCNvNtNtCs17DqjwEXZjU_11music_stats9providers6lastfm15fetch_scrobbles0B7_
FNDA:0,_RNvNtNtCs17DqjwEXZjU_11music_stats9providers6lastfm10fetch_page
FNDA:0,_RNvNtNtCs17DqjwEXZjU_11music_stats9providers6lastfm11parse_track
FNDA:0,_RNvNtNtCs17DqjwEXZjU_11music_stats9providers6lastfm15fetch_all_pages
FNDA:0,_RNvNtNtCs17DqjwEXZjU_11music_stats9providers6lastfm19calculate_timestamp
FNDA:0,_RNvNtNtCsiWAXfJxbeky_11music_stats9providers6lastfm10fetch_page
FNDA:0,_RNvNtNtCsiWAXfJxbeky_11music_stats9providers6lastfm11parse_track
FNDA:0,_RNvNtNtCsiWAXfJxbeky_11music_stats9providers6lastfm15fetch_all_pages
FNDA:0,_RNvNtNtCsiWAXfJxbeky_11music_stats9providers6lastfm19calculate_timestamp
FNDA:0,_RNvNtNtCsiWAXfJxbeky_11music_stats9providers6lastfm15fetch_scrobbles
FNDA:0,_RNCNCNvNtNtCsiWAXfJxbeky_11music_stats9providers6lastfm10fetch_page00B9_
FNDA:0,_RNCNCNvNtNtCsiWAXfJxbeky_11music_stats9providers6lastfm10fetch_page0s_0B9_
FNDA:0,_RNCNCNvNtNtCsiWAXfJxbeky_11music_stats9providers6lastfm15fetch_all_pages00B9_
FNDA:0,_RNCNvNtNtCsiWAXfJxbeky_11music_stats9providers6lastfm10fetch_page0B7_
FNDA:0,_RNCNvNtNtCsiWAXfJxbeky_11music_stats9providers6lastfm15fetch_all_pages0B7_
FNDA:0,_RNCNvNtNtCsiWAXfJxbeky_11music_stats9providers6lastfm15fetch_scrobbles0B7_
FNDA:0,_RNvNtNtCseb4eiYqM2BA_11music_stats9providers6lastfm10fetch_page
FNDA:0,_RNvNtNtCseb4eiYqM2BA_11music_stats9providers6lastfm11parse_track
FNDA:0,_RNvNtNtCseb4eiYqM2BA_11music_stats9providers6lastfm15fetch_all_pages
FNDA:0,_RNvNtNtCseb4eiYqM2BA_11music_stats9providers6lastfm15fetch_scrobbles
FNDA:0,_RNvNtNtCseb4eiYqM2BA_11music_stats9providers6lastfm19calculate_timestamp
FNDA:0,_RNCNCNvNtNtCseb4eiYqM2BA_11music_stats9providers6lastfm10fetch_page00B9_
FNDA:0,_RNCNCNvNtNtCseb4eiYqM2BA_11music_stats9providers6lastfm10fetch_page0s_0B9_
FNDA:0,_RNCNCNvNtNtCseb4eiYqM2BA_11music_stats9providers6lastfm15fetch_all_pages00B9_
FNDA:0,_RNCNvNtNtCseb4eiYqM2BA_11music_stats9providers6lastfm10fetch_page0B7_
FNDA:0,_RNCNvNtNtCseb4eiYqM2BA_11music_stats9providers6lastfm15fetch_all_pages0B7_
FNDA:0,_RNCNvNtNtCseb4eiYqM2BA_11music_stats9providers6lastfm15fetch_scrobbles0B7_
FNF:11
FNH:0
DA:12,0
DA:13,0
DA:14,0
DA:15,0
DA:16,0
DA:17,0
DA:18,0
DA:19,0
DA:20,0
DA:21,0
DA:23,0
DA:24,0
DA:25,0
DA:26,0
DA:27,0
DA:28,0
DA:29,0
DA:30,0
DA:33,0
DA:34,0
DA:36,0
DA:37,0
DA:38,0
DA:39,0
DA:40,0
DA:42,0
DA:43,0
DA:44,0
DA:46,0
DA:47,0
DA:48,0
DA:50,0
DA:51,0
DA:54,0
DA:55,0
DA:57,0
DA:58,0
DA:59,0
DA:60,0
DA:61,0
DA:62,0
DA:63,0
DA:64,0
DA:65,0
DA:69,0
DA:70,0
DA:71,0
DA:72,0
DA:74,0
DA:75,0
DA:76,0
DA:77,0
DA:78,0
DA:80,0
DA:81,0
DA:82,0
DA:83,0
DA:84,0
DA:86,0
DA:87,0
DA:88,0
DA:89,0
DA:90,0
DA:92,0
DA:93,0
DA:94,0
DA:95,0
DA:96,0
DA:97,0
DA:98,0
BRF:0
BRH:0
LF:76
LH:0
end_of_record
SF:/home/dubu/git/spotify/src/providers/types.rs
FN:16,_RNvMNtNtCs9AptuOHTLZc_11music_stats9providers5typesNtB2_8Scrobble3new
FN:16,_RNvMNtNtCs17DqjwEXZjU_11music_stats9providers5typesNtB2_8Scrobble3new
FN:16,_RNvMNtNtCsiWAXfJxbeky_11music_stats9providers5typesNtB2_8Scrobble3new
FN:16,_RNvMNtNtCseb4eiYqM2BA_11music_stats9providers5typesNtB2_8Scrobble3new
FNDA:210,_RNvMNtNtCs9AptuOHTLZc_11music_stats9providers5typesNtB2_8Scrobble3new
FNDA:0,_RNvMNtNtCs17DqjwEXZjU_11music_stats9providers5typesNtB2_8Scrobble3new
FNDA:0,_RNvMNtNtCsiWAXfJxbeky_11music_stats9providers5typesNtB2_8Scrobble3new
FNDA:0,_RNvMNtNtCseb4eiYqM2BA_11music_stats9providers5typesNtB2_8Scrobble3new
FNF:1
FNH:1
DA:16,210
DA:17,210
DA:18,210
DA:19,210
DA:20,210
DA:21,210
BRF:0
BRH:0
LF:6
LH:6
end_of_record
SF:/home/dubu/git/spotify/src/providers/youtube.rs
FN:22,_RNCNvNtNtCs9AptuOHTLZc_11music_stats9providers7youtube14filter_by_date0B7_
FN:10,_RNCNvNtNtCs9AptuOHTLZc_11music_stats9providers7youtube15fetch_scrobbles0B7_
FN:18,_RNvNtNtCs9AptuOHTLZc_11music_stats9providers7youtube14filter_by_date
FN:6,_RNvNtNtCs9AptuOHTLZc_11music_stats9providers7youtube15fetch_scrobbles
FN:6,_RNvNtNtCs17DqjwEXZjU_11music_stats9providers7youtube15fetch_scrobbles
FN:18,_RNvNtNtCs17DqjwEXZjU_11music_stats9providers7youtube14filter_by_date
FN:22,_RNCNvNtNtCs17DqjwEXZjU_11music_stats9providers7youtube14filter_by_date0B7_
FN:10,_RNCNvNtNtCs17DqjwEXZjU_11music_stats9providers7youtube15fetch_scrobbles0B7_
FN:18,_RNvNtNtCsiWAXfJxbeky_11music_stats9providers7youtube14filter_by_date
FN:22,_RNCNvNtNtCsiWAXfJxbeky_11music_stats9providers7youtube14filter_by_date0B7_
FN:10,_RNCNvNtNtCsiWAXfJxbeky_11music_stats9providers7youtube15fetch_scrobbles0B7_
FN:6,_RNvNtNtCsiWAXfJxbeky_11music_stats9providers7youtube15fetch_scrobbles
FN:22,_RNCNvNtNtCseb4eiYqM2BA_11music_stats9providers7youtube14filter_by_date0B7_
FN:10,_RNCNvNtNtCseb4eiYqM2BA_11music_stats9providers7youtube15fetch_scrobbles0B7_
FN:18,_RNvNtNtCseb4eiYqM2BA_11music_stats9providers7youtube14filter_by_date
FN:6,_RNvNtNtCseb4eiYqM2BA_11music_stats9providers7youtube15fetch_scrobbles
FNDA:0,_RNCNvNtNtCs9AptuOHTLZc_11music_stats9providers7youtube14filter_by_date0B7_
FNDA:0,_RNCNvNtNtCs9AptuOHTLZc_11music_stats9providers7youtube15fetch_scrobbles0B7_
FNDA:0,_RNvNtNtCs9AptuOHTLZc_11music_stats9providers7youtube14filter_by_date
FNDA:0,_RNvNtNtCs9AptuOHTLZc_11music_stats9providers7youtube15fetch_scrobbles
FNDA:0,_RNvNtNtCs17DqjwEXZjU_11music_stats9providers7youtube15fetch_scrobbles
FNDA:0,_RNvNtNtCs17DqjwEXZjU_11music_stats9providers7youtube14filter_by_date
FNDA:0,_RNCNvNtNtCs17DqjwEXZjU_11music_stats9providers7youtube14filter_by_date0B7_
FNDA:0,_RNCNvNtNtCs17DqjwEXZjU_11music_stats9providers7youtube15fetch_scrobbles0B7_
FNDA:0,_RNvNtNtCsiWAXfJxbeky_11music_stats9providers7youtube14filter_by_date
FNDA:0,_RNCNvNtNtCsiWAXfJxbeky_11music_stats9providers7youtube14filter_by_date0B7_
FNDA:0,_RNCNvNtNtCsiWAXfJxbeky_11music_stats9providers7youtube15fetch_scrobbles0B7_
FNDA:0,_RNvNtNtCsiWAXfJxbeky_11music_stats9providers7youtube15fetch_scrobbles
FNDA:0,_RNCNvNtNtCseb4eiYqM2BA_11music_stats9providers7youtube14filter_by_date0B7_
FNDA:0,_RNCNvNtNtCseb4eiYqM2BA_11music_stats9providers7youtube15fetch_scrobbles0B7_
FNDA:0,_RNvNtNtCseb4eiYqM2BA_11music_stats9providers7youtube14filter_by_date
FNDA:0,_RNvNtNtCseb4eiYqM2BA_11music_stats9providers7youtube15fetch_scrobbles
FNF:4
FNH:0
DA:6,0
DA:7,0
DA:8,0
DA:9,0
DA:10,0
DA:11,0
DA:12,0
DA:13,0
DA:14,0
DA:15,0
DA:16,0
DA:18,0
DA:19,0
DA:20,0
DA:21,0
DA:22,0
DA:23,0
DA:24,0
BRF:0
BRH:0
LF:20
LH:0
end_of_record
SF:/home/dubu/git/spotify/src/providers/youtube_http.rs
FN:34,_RNvNtNtCs9AptuOHTLZc_11music_stats9providers12youtube_http15extract_sapisid
FN:50,_RNvNtNtCs9AptuOHTLZc_11music_stats9providers12youtube_http15sanitize_cookie
FN:43,_RNvNtNtCs9AptuOHTLZc_11music_stats9providers12youtube_http17build_auth_header
FN:5,_RNvNtNtCs9AptuOHTLZc_11music_stats9providers12youtube_http18fetch_history_page
FN:66,_RNvNtNtCs9AptuOHTLZc_11music_stats9providers12youtube_http9sha1_hash
FN:17,_RNCNCNvNtNtCs9AptuOHTLZc_11music_stats9providers12youtube_http18fetch_history_page00B9_
FN:29,_RNCNCNvNtNtCs9AptuOHTLZc_11music_stats9providers12youtube_http18fetch_history_page0s_0B9_
FN:37,_RNCNvNtNtCs9AptuOHTLZc_11music_stats9providers12youtube_http15extract_sapisid0B7_
FN:5,_RNCNvNtNtCs9AptuOHTLZc_11music_stats9providers12youtube_http18fetch_history_page0B7_
FN:34,_RNvNtNtCs17DqjwEXZjU_11music_stats9providers12youtube_http15extract_sapisid
FN:50,_RNvNtNtCs17DqjwEXZjU_11music_stats9providers12youtube_http15sanitize_cookie
FN:43,_RNvNtNtCs17DqjwEXZjU_11music_stats9providers12youtube_http17build_auth_header
FN:5,_RNvNtNtCs17DqjwEXZjU_11music_stats9providers12youtube_http18fetch_history_page
FN:66,_RNvNtNtCs17DqjwEXZjU_11music_stats9providers12youtube_http9sha1_hash
FN:17,_RNCNCNvNtNtCs17DqjwEXZjU_11music_stats9providers12youtube_http18fetch_history_page00B9_
FN:29,_RNCNCNvNtNtCs17DqjwEXZjU_11music_stats9providers12youtube_http18fetch_history_page0s_0B9_
FN:37,_RNCNvNtNtCs17DqjwEXZjU_11music_stats9providers12youtube_http15extract_sapisid0B7_
FN:5,_RNCNvNtNtCs17DqjwEXZjU_11music_stats9providers12youtube_http18fetch_history_page0B7_
FN:17,_RNCNCNvNtNtCsiWAXfJxbeky_11music_stats9providers12youtube_http18fetch_history_page00B9_
FN:29,_RNCNCNvNtNtCsiWAXfJxbeky_11music_stats9providers12youtube_http18fetch_history_page0s_0B9_
FN:37,_RNCNvNtNtCsiWAXfJxbeky_11music_stats9providers12youtube_http15extract_sapisid0B7_
FN:5,_RNCNvNtNtCsiWAXfJxbeky_11music_stats9providers12youtube_http18fetch_history_page0B7_
FN:34,_RNvNtNtCsiWAXfJxbeky_11music_stats9providers12youtube_http15extract_sapisid
FN:50,_RNvNtNtCsiWAXfJxbeky_11music_stats9providers12youtube_http15sanitize_cookie
FN:43,_RNvNtNtCsiWAXfJxbeky_11music_stats9providers12youtube_http17build_auth_header
FN:5,_RNvNtNtCsiWAXfJxbeky_11music_stats9providers12youtube_http18fetch_history_page
FN:66,_RNvNtNtCsiWAXfJxbeky_11music_stats9providers12youtube_http9sha1_hash
FN:34,_RNvNtNtCseb4eiYqM2BA_11music_stats9providers12youtube_http15extract_sapisid
FN:50,_RNvNtNtCseb4eiYqM2BA_11music_stats9providers12youtube_http15sanitize_cookie
FN:43,_RNvNtNtCseb4eiYqM2BA_11music_stats9providers12youtube_http17build_auth_header
FN:5,_RNvNtNtCseb4eiYqM2BA_11music_stats9providers12youtube_http18fetch_history_page
FN:66,_RNvNtNtCseb4eiYqM2BA_11music_stats9providers12youtube_http9sha1_hash
FN:17,_RNCNCNvNtNtCseb4eiYqM2BA_11music_stats9providers12youtube_http18fetch_history_page00B9_
FN:29,_RNCNCNvNtNtCseb4eiYqM2BA_11music_stats9providers12youtube_http18fetch_history_page0s_0B9_
FN:37,_RNCNvNtNtCseb4eiYqM2BA_11music_stats9providers12youtube_http15extract_sapisid0B7_
FN:5,_RNCNvNtNtCseb4eiYqM2BA_11music_stats9providers12youtube_http18fetch_history_page0B7_
FNDA:0,_RNvNtNtCs9AptuOHTLZc_11music_stats9providers12youtube_http15extract_sapisid
FNDA:0,_RNvNtNtCs9AptuOHTLZc_11music_stats9providers12youtube_http15sanitize_cookie
FNDA:0,_RNvNtNtCs9AptuOHTLZc_11music_stats9providers12youtube_http17build_auth_header
FNDA:0,_RNvNtNtCs9AptuOHTLZc_11music_stats9providers12youtube_http18fetch_history_page
FNDA:0,_RNvNtNtCs9AptuOHTLZc_11music_stats9providers12youtube_http9sha1_hash
FNDA:0,_RNCNCNvNtNtCs9AptuOHTLZc_11music_stats9providers12youtube_http18fetch_history_page00B9_
FNDA:0,_RNCNCNvNtNtCs9AptuOHTLZc_11music_stats9providers12youtube_http18fetch_history_page0s_0B9_
FNDA:0,_RNCNvNtNtCs9AptuOHTLZc_11music_stats9providers12youtube_http15extract_sapisid0B7_
FNDA:0,_RNCNvNtNtCs9AptuOHTLZc_11music_stats9providers12youtube_http18fetch_history_page0B7_
FNDA:0,_RNvNtNtCs17DqjwEXZjU_11music_stats9providers12youtube_http15extract_sapisid
FNDA:0,_RNvNtNtCs17DqjwEXZjU_11music_stats9providers12youtube_http15sanitize_cookie
FNDA:0,_RNvNtNtCs17DqjwEXZjU_11music_stats9providers12youtube_http17build_auth_header
FNDA:0,_RNvNtNtCs17DqjwEXZjU_11music_stats9providers12youtube_http18fetch_history_page
FNDA:0,_RNvNtNtCs17DqjwEXZjU_11music_stats9providers12youtube_http9sha1_hash
FNDA:0,_RNCNCNvNtNtCs17DqjwEXZjU_11music_stats9providers12youtube_http18fetch_history_page00B9_
FNDA:0,_RNCNCNvNtNtCs17DqjwEXZjU_11music_stats9providers12youtube_http18fetch_history_page0s_0B9_
FNDA:0,_RNCNvNtNtCs17DqjwEXZjU_11music_stats9providers12youtube_http15extract_sapisid0B7_
FNDA:0,_RNCNvNtNtCs17DqjwEXZjU_11music_stats9providers12youtube_http18fetch_history_page0B7_
FNDA:0,_RNCNCNvNtNtCsiWAXfJxbeky_11music_stats9providers12youtube_http18fetch_history_page00B9_
FNDA:0,_RNCNCNvNtNtCsiWAXfJxbeky_11music_stats9providers12youtube_http18fetch_history_page0s_0B9_
FNDA:0,_RNCNvNtNtCsiWAXfJxbeky_11music_stats9providers12youtube_http15extract_sapisid0B7_
FNDA:0,_RNCNvNtNtCsiWAXfJxbeky_11music_stats9providers12youtube_http18fetch_history_page0B7_
FNDA:0,_RNvNtNtCsiWAXfJxbeky_11music_stats9providers12youtube_http15extract_sapisid
FNDA:0,_RNvNtNtCsiWAXfJxbeky_11music_stats9providers12youtube_http15sanitize_cookie
FNDA:0,_RNvNtNtCsiWAXfJxbeky_11music_stats9providers12youtube_http17build_auth_header
FNDA:0,_RNvNtNtCsiWAXfJxbeky_11music_stats9providers12youtube_http18fetch_history_page
FNDA:0,_RNvNtNtCsiWAXfJxbeky_11music_stats9providers12youtube_http9sha1_hash
FNDA:0,_RNvNtNtCseb4eiYqM2BA_11music_stats9providers12youtube_http15extract_sapisid
FNDA:0,_RNvNtNtCseb4eiYqM2BA_11music_stats9providers12youtube_http15sanitize_cookie
FNDA:0,_RNvNtNtCseb4eiYqM2BA_11music_stats9providers12youtube_http17build_auth_header
FNDA:0,_RNvNtNtCseb4eiYqM2BA_11music_stats9providers12youtube_http18fetch_history_page
FNDA:0,_RNvNtNtCseb4eiYqM2BA_11music_stats9providers12youtube_http9sha1_hash
FNDA:0,_RNCNCNvNtNtCseb4eiYqM2BA_11music_stats9providers12youtube_http18fetch_history_page00B9_
FNDA:0,_RNCNCNvNtNtCseb4eiYqM2BA_11music_stats9providers12youtube_http18fetch_history_page0s_0B9_
FNDA:0,_RNCNvNtNtCseb4eiYqM2BA_11music_stats9providers12youtube_http15extract_sapisid0B7_
FNDA:0,_RNCNvNtNtCseb4eiYqM2BA_11music_stats9providers12youtube_http18fetch_history_page0B7_
FNF:9
FNH:0
DA:5,0
DA:6,0
DA:7,0
DA:8,0
DA:10,0
DA:11,0
DA:12,0
DA:13,0
DA:14,0
DA:15,0
DA:16,0
DA:17,0
DA:18,0
DA:19,0
DA:21,0
DA:22,0
DA:23,0
DA:24,0
DA:25,0
DA:26,0
DA:28,0
DA:29,0
DA:30,0
DA:31,0
DA:32,0
DA:34,0
DA:35,0
DA:36,0
DA:37,0
DA:38,0
DA:39,0
DA:40,0
DA:41,0
DA:43,0
DA:44,0
DA:45,0
DA:46,0
DA:47,0
DA:48,0
DA:50,0
DA:51,0
DA:52,0
DA:53,0
DA:54,0
DA:55,0
DA:56,0
DA:57,0
DA:59,0
DA:60,0
DA:62,0
DA:64,0
DA:66,0
DA:67,0
DA:68,0
DA:69,0
DA:70,0
BRF:0
BRH:0
LF:59
LH:0
end_of_record
SF:/home/dubu/git/spotify/src/providers/youtube_json.rs
FN:10,_RNCNvNtNtCs9AptuOHTLZc_11music_stats9providers12youtube_json15parse_scrobbles0B7_
FN:18,_RNCNvNtNtCs9AptuOHTLZc_11music_stats9providers12youtube_json15parse_scrobbless0_0B7_
FN:16,_RNCNvNtNtCs9AptuOHTLZc_11music_stats9providers12youtube_json15parse_scrobbless_0B7_
FN:124,_RNCNvNtNtCs9AptuOHTLZc_11music_stats9providers12youtube_json16parse_shelf_date0B7_
FN:89,_RNCNvNtNtCs9AptuOHTLZc_11music_stats9providers12youtube_json18is_artist_endpoint0B7_
FN:90,_RNCNvNtNtCs9AptuOHTLZc_11music_stats9providers12youtube_json18is_artist_endpoints_0B7_
FN:99,_RNCNvNtNtCs9AptuOHTLZc_11music_stats9providers12youtube_json18resolve_shelf_date0B7_
FN:106,_RNCNvNtNtCs9AptuOHTLZc_11music_stats9providers12youtube_json18resolve_shelf_dates_0B7_
FN:73,_RNCNvNtNtCs9AptuOHTLZc_11music_stats9providers12youtube_json24extract_title_and_artist0B7_
FN:83,_RNCNvNtNtCs9AptuOHTLZc_11music_stats9providers12youtube_json24extract_title_and_artists0_0B7_
FN:75,_RNCNvNtNtCs9AptuOHTLZc_11music_stats9providers12youtube_json24extract_title_and_artists_0B7_
FN:33,_RNCNvNtNtCs9AptuOHTLZc_11music_stats9providers12youtube_json30extract_scrobbles_from_shelves0B7_
FN:38,_RNCNvNtNtCs9AptuOHTLZc_11music_stats9providers12youtube_json30extract_scrobbles_from_shelvess_0B7_
FN:53,_RNvNtNtCs9AptuOHTLZc_11music_stats9providers12youtube_json15parse_list_item
FN:8,_RNvNtNtCs9AptuOHTLZc_11music_stats9providers12youtube_json15parse_scrobbles
FN:116,_RNvNtNtCs9AptuOHTLZc_11music_stats9providers12youtube_json16parse_shelf_date
FN:87,_RNvNtNtCs9AptuOHTLZc_11music_stats9providers12youtube_json18is_artist_endpoint
FN:94,_RNvNtNtCs9AptuOHTLZc_11music_stats9providers12youtube_json18resolve_shelf_date
FN:61,_RNvNtNtCs9AptuOHTLZc_11music_stats9providers12youtube_json24extract_title_and_artist
FN:26,_RNvNtNtCs9AptuOHTLZc_11music_stats9providers12youtube_json30extract_scrobbles_from_shelves
FN:53,_RNvNtNtCs17DqjwEXZjU_11music_stats9providers12youtube_json15parse_list_item
FN:8,_RNvNtNtCs17DqjwEXZjU_11music_stats9providers12youtube_json15parse_scrobbles
FN:116,_RNvNtNtCs17DqjwEXZjU_11music_stats9providers12youtube_json16parse_shelf_date
FN:87,_RNvNtNtCs17DqjwEXZjU_11music_stats9providers12youtube_json18is_artist_endpoint
FN:94,_RNvNtNtCs17DqjwEXZjU_11music_stats9providers12youtube_json18resolve_shelf_date
FN:61,_RNvNtNtCs17DqjwEXZjU_11music_stats9providers12youtube_json24extract_title_and_artist
FN:26,_RNvNtNtCs17DqjwEXZjU_11music_stats9providers12youtube_json30extract_scrobbles_from_shelves
FN:10,_RNCNvNtNtCs17DqjwEXZjU_11music_stats9providers12youtube_json15parse_scrobbles0B7_
FN:18,_RNCNvNtNtCs17DqjwEXZjU_11music_stats9providers12youtube_json15parse_scrobbless0_0B7_
FN:16,_RNCNvNtNtCs17DqjwEXZjU_11music_stats9providers12youtube_json15parse_scrobbless_0B7_
FN:124,_RNCNvNtNtCs17DqjwEXZjU_11music_stats9providers12youtube_json16parse_shelf_date0B7_
FN:89,_RNCNvNtNtCs17DqjwEXZjU_11music_stats9providers12youtube_json18is_artist_endpoint0B7_
FN:90,_RNCNvNtNtCs17DqjwEXZjU_11music_stats9providers12youtube_json18is_artist_endpoints_0B7_
FN:99,_RNCNvNtNtCs17DqjwEXZjU_11music_stats9providers12youtube_json18resolve_shelf_date0B7_
FN:106,_RNCNvNtNtCs17DqjwEXZjU_11music_stats9providers12youtube_json18resolve_shelf_dates_0B7_
FN:73,_RNCNvNtNtCs17DqjwEXZjU_11music_stats9providers12youtube_json24extract_title_and_artist0B7_
FN:83,_RNCNvNtNtCs17DqjwEXZjU_11music_stats9providers12youtube_json24extract_title_and_artists0_0B7_
FN:75,_RNCNvNtNtCs17DqjwEXZjU_11music_stats9providers12youtube_json24extract_title_and_artists_0B7_
FN:33,_RNCNvNtNtCs17DqjwEXZjU_11music_stats9providers12youtube_json30extract_scrobbles_from_shelves0B7_
FN:38,_RNCNvNtNtCs17DqjwEXZjU_11music_stats9providers12youtube_json30extract_scrobbles_from_shelvess_0B7_
FN:10,_RNCNvNtNtCsiWAXfJxbeky_11music_stats9providers12youtube_json15parse_scrobbles0B7_
FN:18,_RNCNvNtNtCsiWAXfJxbeky_11music_stats9providers12youtube_json15parse_scrobbless0_0B7_
FN:16,_RNCNvNtNtCsiWAXfJxbeky_11music_stats9providers12youtube_json15parse_scrobbless_0B7_
FN:124,_RNCNvNtNtCsiWAXfJxbeky_11music_stats9providers12youtube_json16parse_shelf_date0B7_
FN:89,_RNCNvNtNtCsiWAXfJxbeky_11music_stats9providers12youtube_json18is_artist_endpoint0B7_
FN:90,_RNCNvNtNtCsiWAXfJxbeky_11music_stats9providers12youtube_json18is_artist_endpoints_0B7_
FN:99,_RNCNvNtNtCsiWAXfJxbeky_11music_stats9providers12youtube_json18resolve_shelf_date0B7_
FN:106,_RNCNvNtNtCsiWAXfJxbeky_11music_stats9providers12youtube_json18resolve_shelf_dates_0B7_
FN:73,_RNCNvNtNtCsiWAXfJxbeky_11music_stats9providers12youtube_json24extract_title_and_artist0B7_
FN:83,_RNCNvNtNtCsiWAXfJxbeky_11music_stats9providers12youtube_json24extract_title_and_artists0_0B7_
FN:75,_RNCNvNtNtCsiWAXfJxbeky_11music_stats9providers12youtube_json24extract_title_and_artists_0B7_
FN:33,_RNCNvNtNtCsiWAXfJxbeky_11music_stats9providers12youtube_json30extract_scrobbles_from_shelves0B7_
FN:38,_RNCNvNtNtCsiWAXfJxbeky_11music_stats9providers12youtube_json30extract_scrobbles_from_shelvess_0B7_
FN:53,_RNvNtNtCsiWAXfJxbeky_11music_stats9providers12youtube_json15parse_list_item
FN:8,_RNvNtNtCsiWAXfJxbeky_11music_stats9providers12youtube_json15parse_scrobbles
FN:116,_RNvNtNtCsiWAXfJxbeky_11music_stats9providers12youtube_json16parse_shelf_date
FN:87,_RNvNtNtCsiWAXfJxbeky_11music_stats9providers12youtube_json18is_artist_endpoint
FN:94,_RNvNtNtCsiWAXfJxbeky_11music_stats9providers12youtube_json18resolve_shelf_date
FN:61,_RNvNtNtCsiWAXfJxbeky_11music_stats9providers12youtube_json24extract_title_and_artist
FN:26,_RNvNtNtCsiWAXfJxbeky_11music_stats9providers12youtube_json30extract_scrobbles_from_shelves
FN:53,_RNvNtNtCseb4eiYqM2BA_11music_stats9providers12youtube_json15parse_list_item
FN:8,_RNvNtNtCseb4eiYqM2BA_11music_stats9providers12youtube_json15parse_scrobbles
FN:116,_RNvNtNtCseb4eiYqM2BA_11music_stats9providers12youtube_json16parse_shelf_date
FN:87,_RNvNtNtCseb4eiYqM2BA_11music_stats9providers12youtube_json18is_artist_endpoint
FN:94,_RNvNtNtCseb4eiYqM2BA_11music_stats9providers12youtube_json18resolve_shelf_date
FN:61,_RNvNtNtCseb4eiYqM2BA_11music_stats9providers12youtube_json24extract_title_and_artist
FN:26,_RNvNtNtCseb4eiYqM2BA_11music_stats9providers12youtube_json30extract_scrobbles_from_shelves
FN:10,_RNCNvNtNtCseb4eiYqM2BA_11music_stats9providers12youtube_json15parse_scrobbles0B7_
FN:18,_RNCNvNtNtCseb4eiYqM2BA_11music_stats9providers12youtube_json15parse_scrobbless0_0B7_
FN:16,_RNCNvNtNtCseb4eiYqM2BA_11music_stats9providers12youtube_json15parse_scrobbless_0B7_
FN:124,_RNCNvNtNtCseb4eiYqM2BA_11music_stats9providers12youtube_json16parse_shelf_date0B7_
FN:89,_RNCNvNtNtCseb4eiYqM2BA_11music_stats9providers12youtube_json18is_artist_endpoint0B7_
FN:90,_RNCNvNtNtCseb4eiYqM2BA_11music_stats9providers12youtube_json18is_artist_endpoints_0B7_
FN:99,_RNCNvNtNtCseb4eiYqM2BA_11music_stats9providers12youtube_json18resolve_shelf_date0B7_
FN:106,_RNCNvNtNtCseb4eiYqM2BA_11music_stats9providers12youtube_json18resolve_shelf_dates_0B7_
FN:73,_RNCNvNtNtCseb4eiYqM2BA_11music_stats9providers12youtube_json24extract_title_and_artist0B7_
FN:83,_RNCNvNtNtCseb4eiYqM2BA_11music_stats9providers12youtube_json24extract_title_and_artists0_0B7_
FN:75,_RNCNvNtNtCseb4eiYqM2BA_11music_stats9providers12youtube_json24extract_title_and_artists_0B7_
FN:33,_RNCNvNtNtCseb4eiYqM2BA_11music_stats9providers12youtube_json30extract_scrobbles_from_shelves0B7_
FN:38,_RNCNvNtNtCseb4eiYqM2BA_11music_stats9providers12youtube_json30extract_scrobbles_from_shelvess_0B7_
FNDA:1,_RNCNvNtNtCs9AptuOHTLZc_11music_stats9providers12youtube_json15parse_scrobbles0B7_
FNDA:1,_RNCNvNtNtCs9AptuOHTLZc_11music_stats9providers12youtube_json15parse_scrobbless0_0B7_
FNDA:9,_RNCNvNtNtCs9AptuOHTLZc_11music_stats9providers12youtube_json15parse_scrobbless_0B7_
FNDA:129,_RNCNvNtNtCs9AptuOHTLZc_11music_stats9providers12youtube_json16parse_shelf_date0B7_
FNDA:414,_RNCNvNtNtCs9AptuOHTLZc_11music_stats9providers12youtube_json18is_artist_endpoint0B7_
FNDA:414,_RNCNvNtNtCs9AptuOHTLZc_11music_stats9providers12youtube_json18is_artist_endpoints_0B7_
FNDA:41,_RNCNvNtNtCs9AptuOHTLZc_11music_stats9providers12youtube_json18resolve_shelf_date0B7_
FNDA:21,_RNCNvNtNtCs9AptuOHTLZc_11music_stats9providers12youtube_json18resolve_shelf_dates_0B7_
FNDA:203,_RNCNvNtNtCs9AptuOHTLZc_11music_stats9providers12youtube_json24extract_title_and_artist0B7_
FNDA:4,_RNCNvNtNtCs9AptuOHTLZc_11music_stats9providers12youtube_json24extract_title_and_artists0_0B7_
FNDA:222,_RNCNvNtNtCs9AptuOHTLZc_11music_stats9providers12youtube_json24extract_title_and_artists_0B7_
FNDA:11,_RNCNvNtNtCs9AptuOHTLZc_11music_stats9providers12youtube_json30extract_scrobbles_from_shelves0B7_
FNDA:11,_RNCNvNtNtCs9AptuOHTLZc_11music_stats9providers12youtube_json30extract_scrobbles_from_shelvess_0B7_
FNDA:203,_RNvNtNtCs9AptuOHTLZc_11music_stats9providers12youtube_json15parse_list_item
FNDA:11,_RNvNtNtCs9AptuOHTLZc_11music_stats9providers12youtube_json15parse_scrobbles
FNDA:194,_RNvNtNtCs9AptuOHTLZc_11music_stats9providers12youtube_json16parse_shelf_date
FNDA:414,_RNvNtNtCs9AptuOHTLZc_11music_stats9providers12youtube_json18is_artist_endpoint
FNDA:11,_RNvNtNtCs9AptuOHTLZc_11music_stats9providers12youtube_json18resolve_shelf_date
FNDA:203,_RNvNtNtCs9AptuOHTLZc_11music_stats9providers12youtube_json24extract_title_and_artist
FNDA:9,_RNvNtNtCs9AptuOHTLZc_11music_stats9providers12youtube_json30extract_scrobbles_from_shelves
FNDA:0,_RNvNtNtCs17DqjwEXZjU_11music_stats9providers12youtube_json15parse_list_item
FNDA:0,_RNvNtNtCs17DqjwEXZjU_11music_stats9providers12youtube_json15parse_scrobbles
FNDA:0,_RNvNtNtCs17DqjwEXZjU_11music_stats9providers12youtube_json16parse_shelf_date
FNDA:0,_RNvNtNtCs17DqjwEXZjU_11music_stats9providers12youtube_json18is_artist_endpoint
FNDA:0,_RNvNtNtCs17DqjwEXZjU_11music_stats9providers12youtube_json18resolve_shelf_date
FNDA:0,_RNvNtNtCs17DqjwEXZjU_11music_stats9providers12youtube_json24extract_title_and_artist
FNDA:0,_RNvNtNtCs17DqjwEXZjU_11music_stats9providers12youtube_json30extract_scrobbles_from_shelves
FNDA:0,_RNCNvNtNtCs17DqjwEXZjU_11music_stats9providers12youtube_json15parse_scrobbles0B7_
FNDA:0,_RNCNvNtNtCs17DqjwEXZjU_11music_stats9providers12youtube_json15parse_scrobbless0_0B7_
FNDA:0,_RNCNvNtNtCs17DqjwEXZjU_11music_stats9providers12youtube_json15parse_scrobbless_0B7_
FNDA:0,_RNCNvNtNtCs17DqjwEXZjU_11music_stats9providers12youtube_json16parse_shelf_date0B7_
FNDA:0,_RNCNvNtNtCs17DqjwEXZjU_11music_stats9providers12youtube_json18is_artist_endpoint0B7_
FNDA:0,_RNCNvNtNtCs17DqjwEXZjU_11music_stats9providers12youtube_json18is_artist_endpoints_0B7_
FNDA:0,_RNCNvNtNtCs17DqjwEXZjU_11music_stats9providers12youtube_json18resolve_shelf_date0B7_
FNDA:0,_RNCNvNtNtCs17DqjwEXZjU_11music_stats9providers12youtube_json18resolve_shelf_dates_0B7_
FNDA:0,_RNCNvNtNtCs17DqjwEXZjU_11music_stats9providers12youtube_json24extract_title_and_artist0B7_
FNDA:0,_RNCNvNtNtCs17DqjwEXZjU_11music_stats9providers12youtube_json24extract_title_and_artists0_0B7_
FNDA:0,_RNCNvNtNtCs17DqjwEXZjU_11music_stats9providers12youtube_json24extract_title_and_artists_0B7_
FNDA:0,_RNCNvNtNtCs17DqjwEXZjU_11music_stats9providers12youtube_json30extract_scrobbles_from_shelves0B7_
FNDA:0,_RNCNvNtNtCs17DqjwEXZjU_11music_stats9providers12youtube_json30extract_scrobbles_from_shelvess_0B7_
FNDA:0,_RNCNvNtNtCsiWAXfJxbeky_11music_stats9providers12youtube_json15parse_scrobbles0B7_
FNDA:0,_RNCNvNtNtCsiWAXfJxbeky_11music_stats9providers12youtube_json15parse_scrobbless0_0B7_
FNDA:0,_RNCNvNtNtCsiWAXfJxbeky_11music_stats9providers12youtube_json15parse_scrobbless_0B7_
FNDA:0,_RNCNvNtNtCsiWAXfJxbeky_11music_stats9providers12youtube_json16parse_shelf_date0B7_
FNDA:0,_RNCNvNtNtCsiWAXfJxbeky_11music_stats9providers12youtube_json18is_artist_endpoint0B7_
FNDA:0,_RNCNvNtNtCsiWAXfJxbeky_11music_stats9providers12youtube_json18is_artist_endpoints_0B7_
FNDA:0,_RNCNvNtNtCsiWAXfJxbeky_11music_stats9providers12youtube_json18resolve_shelf_date0B7_
FNDA:0,_RNCNvNtNtCsiWAXfJxbeky_11music_stats9providers12youtube_json18resolve_shelf_dates_0B7_
FNDA:0,_RNCNvNtNtCsiWAXfJxbeky_11music_stats9providers12youtube_json24extract_title_and_artist0B7_
FNDA:0,_RNCNvNtNtCsiWAXfJxbeky_11music_stats9providers12youtube_json24extract_title_and_artists0_0B7_
FNDA:0,_RNCNvNtNtCsiWAXfJxbeky_11music_stats9providers12youtube_json24extract_title_and_artists_0B7_
FNDA:0,_RNCNvNtNtCsiWAXfJxbeky_11music_stats9providers12youtube_json30extract_scrobbles_from_shelves0B7_
FNDA:0,_RNCNvNtNtCsiWAXfJxbeky_11music_stats9providers12youtube_json30extract_scrobbles_from_shelvess_0B7_
FNDA:0,_RNvNtNtCsiWAXfJxbeky_11music_stats9providers12youtube_json15parse_list_item
FNDA:0,_RNvNtNtCsiWAXfJxbeky_11music_stats9providers12youtube_json15parse_scrobbles
FNDA:0,_RNvNtNtCsiWAXfJxbeky_11music_stats9providers12youtube_json16parse_shelf_date
FNDA:0,_RNvNtNtCsiWAXfJxbeky_11music_stats9providers12youtube_json18is_artist_endpoint
FNDA:0,_RNvNtNtCsiWAXfJxbeky_11music_stats9providers12youtube_json18resolve_shelf_date
FNDA:0,_RNvNtNtCsiWAXfJxbeky_11music_stats9providers12youtube_json24extract_title_and_artist
FNDA:0,_RNvNtNtCsiWAXfJxbeky_11music_stats9providers12youtube_json30extract_scrobbles_from_shelves
FNDA:0,_RNvNtNtCseb4eiYqM2BA_11music_stats9providers12youtube_json15parse_list_item
FNDA:0,_RNvNtNtCseb4eiYqM2BA_11music_stats9providers12youtube_json15parse_scrobbles
FNDA:0,_RNvNtNtCseb4eiYqM2BA_11music_stats9providers12youtube_json16parse_shelf_date
FNDA:0,_RNvNtNtCseb4eiYqM2BA_11music_stats9providers12youtube_json18is_artist_endpoint
FNDA:0,_RNvNtNtCseb4eiYqM2BA_11music_stats9providers12youtube_json18resolve_shelf_date
FNDA:0,_RNvNtNtCseb4eiYqM2BA_11music_stats9providers12youtube_json24extract_title_and_artist
FNDA:0,_RNvNtNtCseb4eiYqM2BA_11music_stats9providers12youtube_json30extract_scrobbles_from_shelves
FNDA:0,_RNCNvNtNtCseb4eiYqM2BA_11music_stats9providers12youtube_json15parse_scrobbles0B7_
FNDA:0,_RNCNvNtNtCseb4eiYqM2BA_11music_stats9providers12youtube_json15parse_scrobbless0_0B7_
FNDA:0,_RNCNvNtNtCseb4eiYqM2BA_11music_stats9providers12youtube_json15parse_scrobbless_0B7_
FNDA:0,_RNCNvNtNtCseb4eiYqM2BA_11music_stats9providers12youtube_json16parse_shelf_date0B7_
FNDA:0,_RNCNvNtNtCseb4eiYqM2BA_11music_stats9providers12youtube_json18is_artist_endpoint0B7_
FNDA:0,_RNCNvNtNtCseb4eiYqM2BA_11music_stats9providers12youtube_json18is_artist_endpoints_0B7_
FNDA:0,_RNCNvNtNtCseb4eiYqM2BA_11music_stats9providers12youtube_json18resolve_shelf_date0B7_
FNDA:0,_RNCNvNtNtCseb4eiYqM2BA_11music_stats9providers12youtube_json18resolve_shelf_dates_0B7_
FNDA:0,_RNCNvNtNtCseb4eiYqM2BA_11music_stats9providers12youtube_json24extract_title_and_artist0B7_
FNDA:0,_RNCNvNtNtCseb4eiYqM2BA_11music_stats9providers12youtube_json24extract_title_and_artists0_0B7_
FNDA:0,_RNCNvNtNtCseb4eiYqM2BA_11music_stats9providers12youtube_json24extract_title_and_artists_0B7_
FNDA:0,_RNCNvNtNtCseb4eiYqM2BA_11music_stats9providers12youtube_json30extract_scrobbles_from_shelves0B7_
FNDA:0,_RNCNvNtNtCseb4eiYqM2BA_11music_stats9providers12youtube_json30extract_scrobbles_from_shelvess_0B7_
FNF:20
FNH:20
DA:8,11
DA:9,11
DA:10,1
DA:11,1
DA:12,1
DA:14,10
DA:15,10
DA:16,10
DA:17,10
DA:18,1
DA:19,1
DA:20,1
DA:22,9
DA:23,9
DA:24,11
DA:26,9
DA:27,9
DA:29,20
DA:30,11
DA:31,11
DA:32,11
DA:33,11
DA:34,11
DA:36,11
DA:38,11
DA:39,214
DA:40,203
DA:41,203
DA:42,193
DA:43,193
DA:44,193
DA:46,0
DA:47,0
DA:50,9
DA:51,9
DA:53,203
DA:54,203
DA:55,203
DA:56,194
DA:58,193
DA:59,203
DA:61,203
DA:62,203
DA:63,203
DA:65,799
DA:66,605
DA:67,605
DA:68,596
DA:70,1258
DA:71,662
DA:72,617
DA:73,203
DA:74,414
DA:75,222
DA:76,192
DA:77,45
DA:82,194
DA:83,194
DA:85,203
DA:87,414
DA:88,414
DA:89,414
DA:90,414
DA:91,414
DA:92,414
DA:94,11
DA:95,11
DA:97,11
DA:98,11
DA:99,41
DA:101,6
DA:102,5
DA:104,5
DA:105,5
DA:106,21
DA:108,1
DA:109,1
DA:110,1
DA:111,4
DA:113,4
DA:114,11
DA:116,194
DA:117,194
DA:118,67
DA:119,127
DA:121,127
DA:122,127
DA:123,127
DA:124,129
DA:126,126
DA:127,1
DA:129,1
DA:130,194
BRF:0
BRH:0
LF:106
LH:104
end_of_record
SF:/home/dubu/git/spotify/src/providers/youtube_parse.rs
FN:107,_RNvNtNtCs9AptuOHTLZc_11music_stats9providers13youtube_parse13unescape_json
FN:91,_RNvNtNtCs9AptuOHTLZc_11music_stats9providers13youtube_parse18extract_data_field
FN:68,_RNvNtNtCs9AptuOHTLZc_11music_stats9providers13youtube_parse20decode_html_entities
FN:27,_RNvNtNtCs9AptuOHTLZc_11music_stats9providers13youtube_parse21extract_balanced_json
FN:7,_RNvNtNtCs9AptuOHTLZc_11music_stats9providers13youtube_parse22extract_json_from_html
FN:93,_RNCNvNtNtCs9AptuOHTLZc_11music_stats9providers13youtube_parse18extract_data_field0B7_
FN:100,_RNCNvNtNtCs9AptuOHTLZc_11music_stats9providers13youtube_parse18extract_data_fields_0B7_
FN:9,_RNCNvNtNtCs9AptuOHTLZc_11music_stats9providers13youtube_parse22extract_json_from_html0B7_
FN:15,_RNCNvNtNtCs9AptuOHTLZc_11music_stats9providers13youtube_parse22extract_json_from_htmls_0B7_
FN:107,_RNvNtNtCs17DqjwEXZjU_11music_stats9providers13youtube_parse13unescape_json
FN:91,_RNvNtNtCs17DqjwEXZjU_11music_stats9providers13youtube_parse18extract_data_field
FN:68,_RNvNtNtCs17DqjwEXZjU_11music_stats9providers13youtube_parse20decode_html_entities
FN:27,_RNvNtNtCs17DqjwEXZjU_11music_stats9providers13youtube_parse21extract_balanced_json
FN:7,_RNvNtNtCs17DqjwEXZjU_11music_stats9providers13youtube_parse22extract_json_from_html
FN:93,_RNCNvNtNtCs17DqjwEXZjU_11music_stats9providers13youtube_parse18extract_data_field0B7_
FN:100,_RNCNvNtNtCs17DqjwEXZjU_11music_stats9providers13youtube_parse18extract_data_fields_0B7_
FN:9,_RNCNvNtNtCs17DqjwEXZjU_11music_stats9providers13youtube_parse22extract_json_from_html0B7_
FN:15,_RNCNvNtNtCs17DqjwEXZjU_11music_stats9providers13youtube_parse22extract_json_from_htmls_0B7_
FN:107,_RNvNtNtCsiWAXfJxbeky_11music_stats9providers13youtube_parse13unescape_json
FN:91,_RNvNtNtCsiWAXfJxbeky_11music_stats9providers13youtube_parse18extract_data_field
FN:68,_RNvNtNtCsiWAXfJxbeky_11music_stats9providers13youtube_parse20decode_html_entities
FN:27,_RNvNtNtCsiWAXfJxbeky_11music_stats9providers13youtube_parse21extract_balanced_json
FN:7,_RNvNtNtCsiWAXfJxbeky_11music_stats9providers13youtube_parse22extract_json_from_html
FN:93,_RNCNvNtNtCsiWAXfJxbeky_11music_stats9providers13youtube_parse18extract_data_field0B7_
FN:100,_RNCNvNtNtCsiWAXfJxbeky_11music_stats9providers13youtube_parse18extract_data_fields_0B7_
FN:9,_RNCNvNtNtCsiWAXfJxbeky_11music_stats9providers13youtube_parse22extract_json_from_html0B7_
FN:15,_RNCNvNtNtCsiWAXfJxbeky_11music_stats9providers13youtube_parse22extract_json_from_htmls_0B7_
FN:93,_RNCNvNtNtCseb4eiYqM2BA_11music_stats9providers13youtube_parse18extract_data_field0B7_
FN:100,_RNCNvNtNtCseb4eiYqM2BA_11music_stats9providers13youtube_parse18extract_data_fields_0B7_
FN:9,_RNCNvNtNtCseb4eiYqM2BA_11music_stats9providers13youtube_parse22extract_json_from_html0B7_
FN:15,_RNCNvNtNtCseb4eiYqM2BA_11music_stats9providers13youtube_parse22extract_json_from_htmls_0B7_
FN:107,_RNvNtNtCseb4eiYqM2BA_11music_stats9providers13youtube_parse13unescape_json
FN:91,_RNvNtNtCseb4eiYqM2BA_11music_stats9providers13youtube_parse18extract_data_field
FN:68,_RNvNtNtCseb4eiYqM2BA_11music_stats9providers13youtube_parse20decode_html_entities
FN:27,_RNvNtNtCseb4eiYqM2BA_11music_stats9providers13youtube_parse21extract_balanced_json
FN:7,_RNvNtNtCseb4eiYqM2BA_11music_stats9providers13youtube_parse22extract_json_from_html
FNDA:1,_RNvNtNtCs9AptuOHTLZc_11music_stats9providers13youtube_parse13unescape_json
FNDA:2,_RNvNtNtCs9AptuOHTLZc_11music_stats9providers13youtube_parse18extract_data_field
FNDA:2,_RNvNtNtCs9AptuOHTLZc_11music_stats9providers13youtube_parse20decode_html_entities
FNDA:2,_RNvNtNtCs9AptuOHTLZc_11music_stats9providers13youtube_parse21extract_balanced_json
FNDA:4,_RNvNtNtCs9AptuOHTLZc_11music_stats9providers13youtube_parse22extract_json_from_html
FNDA:1,_RNCNvNtNtCs9AptuOHTLZc_11music_stats9providers13youtube_parse18extract_data_field0B7_
FNDA:0,_RNCNvNtNtCs9AptuOHTLZc_11music_stats9providers13youtube_parse18extract_data_fields_0B7_
FNDA:1,_RNCNvNtNtCs9AptuOHTLZc_11music_stats9providers13youtube_parse22extract_json_from_html0B7_
FNDA:1,_RNCNvNtNtCs9AptuOHTLZc_11music_stats9providers13youtube_parse22extract_json_from_htmls_0B7_
FNDA:0,_RNvNtNtCs17DqjwEXZjU_11music_stats9providers13youtube_parse13unescape_json
FNDA:0,_RNvNtNtCs17DqjwEXZjU_11music_stats9providers13youtube_parse18extract_data_field
FNDA:0,_RNvNtNtCs17DqjwEXZjU_11music_stats9providers13youtube_parse20decode_html_entities
FNDA:0,_RNvNtNtCs17DqjwEXZjU_11music_stats9providers13youtube_parse21extract_balanced_json
FNDA:0,_RNvNtNtCs17DqjwEXZjU_11music_stats9providers13youtube_parse22extract_json_from_html
FNDA:0,_RNCNvNtNtCs17DqjwEXZjU_11music_stats9providers13youtube_parse18extract_data_field0B7_
FNDA:0,_RNCNvNtNtCs17DqjwEXZjU_11music_stats9providers13youtube_parse18extract_data_fields_0B7_
FNDA:0,_RNCNvNtNtCs17DqjwEXZjU_11music_stats9providers13youtube_parse22extract_json_from_html0B7_
FNDA:0,_RNCNvNtNtCs17DqjwEXZjU_11music_stats9providers13youtube_parse22extract_json_from_htmls_0B7_
FNDA:0,_RNvNtNtCsiWAXfJxbeky_11music_stats9providers13youtube_parse13unescape_json
FNDA:0,_RNvNtNtCsiWAXfJxbeky_11music_stats9providers13youtube_parse18extract_data_field
FNDA:0,_RNvNtNtCsiWAXfJxbeky_11music_stats9providers13youtube_parse20decode_html_entities
FNDA:0,_RNvNtNtCsiWAXfJxbeky_11music_stats9providers13youtube_parse21extract_balanced_json
FNDA:0,_RNvNtNtCsiWAXfJxbeky_11music_stats9providers13youtube_parse22extract_json_from_html
FNDA:0,_RNCNvNtNtCsiWAXfJxbeky_11music_stats9providers13youtube_parse18extract_data_field0B7_
FNDA:0,_RNCNvNtNtCsiWAXfJxbeky_11music_stats9providers13youtube_parse18extract_data_fields_0B7_
FNDA:0,_RNCNvNtNtCsiWAXfJxbeky_11music_stats9providers13youtube_parse22extract_json_from_html0B7_
FNDA:0,_RNCNvNtNtCsiWAXfJxbeky_11music_stats9providers13youtube_parse22extract_json_from_htmls_0B7_
FNDA:0,_RNCNvNtNtCseb4eiYqM2BA_11music_stats9providers13youtube_parse18extract_data_field0B7_
FNDA:0,_RNCNvNtNtCseb4eiYqM2BA_11music_stats9providers13youtube_parse18extract_data_fields_0B7_
FNDA:0,_RNCNvNtNtCseb4eiYqM2BA_11music_stats9providers13youtube_parse22extract_json_from_html0B7_
FNDA:0,_RNCNvNtNtCseb4eiYqM2BA_11music_stats9providers13youtube_parse22extract_json_from_htmls_0B7_
FNDA:0,_RNvNtNtCseb4eiYqM2BA_11music_stats9providers13youtube_parse13unescape_json
FNDA:0,_RNvNtNtCseb4eiYqM2BA_11music_stats9providers13youtube_parse18extract_data_field
FNDA:0,_RNvNtNtCseb4eiYqM2BA_11music_stats9providers13youtube_parse20decode_html_entities
FNDA:0,_RNvNtNtCseb4eiYqM2BA_11music_stats9providers13youtube_parse21extract_balanced_json
FNDA:0,_RNvNtNtCseb4eiYqM2BA_11music_stats9providers13youtube_parse22extract_json_from_html
FNF:9
FNH:8
DA:7,4
DA:8,4
DA:9,1
DA:10,1
DA:11,1
DA:13,3
DA:14,3
DA:15,1
DA:16,1
DA:17,1
DA:19,2
DA:20,2
DA:21,2
DA:22,1
DA:24,1
DA:25,4
DA:27,2
DA:28,2
DA:29,2
DA:30,2
DA:31,2
DA:32,2
DA:34,3184124
DA:35,3184124
DA:37,3184124
DA:38,0
DA:39,0
DA:40,0
DA:41,0
DA:42,0
DA:43,0
DA:44,0
DA:46,3184124
DA:47,0
DA:48,2
DA:50,2
DA:51,2
DA:52,2
DA:53,0
DA:55,3184120
DA:59,3184122
DA:62,0
DA:63,0
DA:64,0
DA:65,0
DA:66,2
DA:68,2
DA:69,2
DA:70,2
DA:71,2
DA:73,2281657
DA:74,2281655
DA:75,2281650
DA:76,302160
DA:77,300823
DA:78,300823
DA:80,300823
DA:81,300823
DA:82,300823
DA:83,1980832
DA:84,1980832
DA:85,1980832
DA:88,2
DA:89,2
DA:91,2
DA:92,2
DA:93,1
DA:94,1
DA:95,1
DA:97,1
DA:98,1
DA:99,1
DA:100,0
DA:101,0
DA:102,0
DA:104,1
DA:105,2
DA:107,1
DA:108,1
DA:109,1
BRF:0
BRH:0
LF:84
LH:67
end_of_record